; ModuleID = '2/1153.c'
source_filename = "2/1153.c"
target datalayout = "e-m:e-p270:32:32-p271:32:32-p272:64:64-i64:64-f80:128-n8:16:32:64-S128"
target triple = "x86_64-pc-linux-gnu"

%struct.tushu = type { i32, [27 x i8] }

@.str = private unnamed_addr constant [3 x i8] c"%d\00", align 1
@.str.1 = private unnamed_addr constant [6 x i8] c"%d %s\00", align 1
@.str.2 = private unnamed_addr constant [4 x i8] c"%c\0A\00", align 1
@.str.3 = private unnamed_addr constant [4 x i8] c"%d\0A\00", align 1

; Function Attrs: noinline nounwind uwtable
define dso_local void @main() #0 {
  %1 = alloca [999 x %struct.tushu], align 16
  %2 = alloca i32, align 4
  %3 = alloca i32, align 4
  %4 = alloca i32, align 4
  %5 = alloca i32, align 4
  %6 = alloca i32, align 4
  %7 = alloca [26 x i32], align 16
  %8 = bitcast [26 x i32]* %7 to i8*
  call void @llvm.memset.p0i8.i64(i8* align 16 %8, i8 0, i64 104, i1 false)
  %9 = call i32 (i8*, ...) @__isoc99_scanf(i8* getelementptr inbounds ([3 x i8], [3 x i8]* @.str, i64 0, i64 0), i32* %4)
  store i32 0, i32* %2, align 4
  br label %10

10:                                               ; preds = %55, %0
  %11 = load i32, i32* %2, align 4
  %12 = load i32, i32* %4, align 4
  %13 = icmp slt i32 %11, %12
  br i1 %13, label %14, label %58

14:                                               ; preds = %10
  %15 = load i32, i32* %2, align 4
  %16 = sext i32 %15 to i64
  %17 = getelementptr inbounds [999 x %struct.tushu], [999 x %struct.tushu]* %1, i64 0, i64 %16
  %18 = getelementptr inbounds %struct.tushu, %struct.tushu* %17, i32 0, i32 0
  %19 = load i32, i32* %2, align 4
  %20 = sext i32 %19 to i64
  %21 = getelementptr inbounds [999 x %struct.tushu], [999 x %struct.tushu]* %1, i64 0, i64 %20
  %22 = getelementptr inbounds %struct.tushu, %struct.tushu* %21, i32 0, i32 1
  %23 = getelementptr inbounds [27 x i8], [27 x i8]* %22, i64 0, i64 0
  %24 = call i32 (i8*, ...) @__isoc99_scanf(i8* getelementptr inbounds ([6 x i8], [6 x i8]* @.str.1, i64 0, i64 0), i32* %18, i8* %23)
  store i32 0, i32* %3, align 4
  br label %25

25:                                               ; preds = %51, %14
  %26 = load i32, i32* %2, align 4
  %27 = sext i32 %26 to i64
  %28 = getelementptr inbounds [999 x %struct.tushu], [999 x %struct.tushu]* %1, i64 0, i64 %27
  %29 = getelementptr inbounds %struct.tushu, %struct.tushu* %28, i32 0, i32 1
  %30 = load i32, i32* %3, align 4
  %31 = sext i32 %30 to i64
  %32 = getelementptr inbounds [27 x i8], [27 x i8]* %29, i64 0, i64 %31
  %33 = load i8, i8* %32, align 1
  %34 = sext i8 %33 to i32
  %35 = icmp ne i32 %34, 0
  br i1 %35, label %36, label %54

36:                                               ; preds = %25
  %37 = load i32, i32* %2, align 4
  %38 = sext i32 %37 to i64
  %39 = getelementptr inbounds [999 x %struct.tushu], [999 x %struct.tushu]* %1, i64 0, i64 %38
  %40 = getelementptr inbounds %struct.tushu, %struct.tushu* %39, i32 0, i32 1
  %41 = load i32, i32* %3, align 4
  %42 = sext i32 %41 to i64
  %43 = getelementptr inbounds [27 x i8], [27 x i8]* %40, i64 0, i64 %42
  %44 = load i8, i8* %43, align 1
  %45 = sext i8 %44 to i32
  %46 = sub nsw i32 %45, 65
  %47 = sext i32 %46 to i64
  %48 = getelementptr inbounds [26 x i32], [26 x i32]* %7, i64 0, i64 %47
  %49 = load i32, i32* %48, align 4
  %50 = add nsw i32 %49, 1
  store i32 %50, i32* %48, align 4
  br label %51

51:                                               ; preds = %36
  %52 = load i32, i32* %3, align 4
  %53 = add nsw i32 %52, 1
  store i32 %53, i32* %3, align 4
  br label %25

54:                                               ; preds = %25
  br label %55

55:                                               ; preds = %54
  %56 = load i32, i32* %2, align 4
  %57 = add nsw i32 %56, 1
  store i32 %57, i32* %2, align 4
  br label %10

58:                                               ; preds = %10
  %59 = getelementptr inbounds [26 x i32], [26 x i32]* %7, i64 0, i64 0
  %60 = load i32, i32* %59, align 16
  store i32 %60, i32* %6, align 4
  store i32 0, i32* %5, align 4
  store i32 0, i32* %2, align 4
  br label %61

61:                                               ; preds = %78, %58
  %62 = load i32, i32* %2, align 4
  %63 = icmp slt i32 %62, 26
  br i1 %63, label %64, label %81

64:                                               ; preds = %61
  %65 = load i32, i32* %2, align 4
  %66 = sext i32 %65 to i64
  %67 = getelementptr inbounds [26 x i32], [26 x i32]* %7, i64 0, i64 %66
  %68 = load i32, i32* %67, align 4
  %69 = load i32, i32* %6, align 4
  %70 = icmp sgt i32 %68, %69
  br i1 %70, label %71, label %77

71:                                               ; preds = %64
  %72 = load i32, i32* %2, align 4
  store i32 %72, i32* %5, align 4
  %73 = load i32, i32* %2, align 4
  %74 = sext i32 %73 to i64
  %75 = getelementptr inbounds [26 x i32], [26 x i32]* %7, i64 0, i64 %74
  %76 = load i32, i32* %75, align 4
  store i32 %76, i32* %6, align 4
  br label %77

77:                                               ; preds = %71, %64
  br label %78

78:                                               ; preds = %77
  %79 = load i32, i32* %2, align 4
  %80 = add nsw i32 %79, 1
  store i32 %80, i32* %2, align 4
  br label %61

81:                                               ; preds = %61
  %82 = load i32, i32* %5, align 4
  %83 = add nsw i32 %82, 65
  %84 = call i32 (i8*, ...) @printf(i8* getelementptr inbounds ([4 x i8], [4 x i8]* @.str.2, i64 0, i64 0), i32 %83)
  %85 = load i32, i32* %5, align 4
  %86 = sext i32 %85 to i64
  %87 = getelementptr inbounds [26 x i32], [26 x i32]* %7, i64 0, i64 %86
  %88 = load i32, i32* %87, align 4
  %89 = call i32 (i8*, ...) @printf(i8* getelementptr inbounds ([4 x i8], [4 x i8]* @.str.3, i64 0, i64 0), i32 %88)
  store i32 0, i32* %2, align 4
  br label %90

90:                                               ; preds = %131, %81
  %91 = load i32, i32* %2, align 4
  %92 = load i32, i32* %4, align 4
  %93 = icmp slt i32 %91, %92
  br i1 %93, label %94, label %134

94:                                               ; preds = %90
  store i32 0, i32* %3, align 4
  br label %95

95:                                               ; preds = %127, %94
  %96 = load i32, i32* %2, align 4
  %97 = sext i32 %96 to i64
  %98 = getelementptr inbounds [999 x %struct.tushu], [999 x %struct.tushu]* %1, i64 0, i64 %97
  %99 = getelementptr inbounds %struct.tushu, %struct.tushu* %98, i32 0, i32 1
  %100 = load i32, i32* %3, align 4
  %101 = sext i32 %100 to i64
  %102 = getelementptr inbounds [27 x i8], [27 x i8]* %99, i64 0, i64 %101
  %103 = load i8, i8* %102, align 1
  %104 = sext i8 %103 to i32
  %105 = icmp ne i32 %104, 0
  br i1 %105, label %106, label %130

106:                                              ; preds = %95
  %107 = load i32, i32* %2, align 4
  %108 = sext i32 %107 to i64
  %109 = getelementptr inbounds [999 x %struct.tushu], [999 x %struct.tushu]* %1, i64 0, i64 %108
  %110 = getelementptr inbounds %struct.tushu, %struct.tushu* %109, i32 0, i32 1
  %111 = load i32, i32* %3, align 4
  %112 = sext i32 %111 to i64
  %113 = getelementptr inbounds [27 x i8], [27 x i8]* %110, i64 0, i64 %112
  %114 = load i8, i8* %113, align 1
  %115 = sext i8 %114 to i32
  %116 = load i32, i32* %5, align 4
  %117 = add nsw i32 %116, 65
  %118 = icmp eq i32 %115, %117
  br i1 %118, label %119, label %126

119:                                              ; preds = %106
  %120 = load i32, i32* %2, align 4
  %121 = sext i32 %120 to i64
  %122 = getelementptr inbounds [999 x %struct.tushu], [999 x %struct.tushu]* %1, i64 0, i64 %121
  %123 = getelementptr inbounds %struct.tushu, %struct.tushu* %122, i32 0, i32 0
  %124 = load i32, i32* %123, align 16
  %125 = call i32 (i8*, ...) @printf(i8* getelementptr inbounds ([4 x i8], [4 x i8]* @.str.3, i64 0, i64 0), i32 %124)
  br label %130

126:                                              ; preds = %106
  br label %127

127:                                              ; preds = %126
  %128 = load i32, i32* %3, align 4
  %129 = add nsw i32 %128, 1
  store i32 %129, i32* %3, align 4
  br label %95

130:                                              ; preds = %119, %95
  br label %131

131:                                              ; preds = %130
  %132 = load i32, i32* %2, align 4
  %133 = add nsw i32 %132, 1
  store i32 %133, i32* %2, align 4
  br label %90

134:                                              ; preds = %90
  ret void
}

; Function Attrs: argmemonly nounwind willreturn
declare void @llvm.memset.p0i8.i64(i8* nocapture writeonly, i8, i64, i1 immarg) #1

declare dso_local i32 @__isoc99_scanf(i8*, ...) #2

declare dso_local i32 @printf(i8*, ...) #2


!llvm.module.flags = !{!0}
!llvm.ident = !{!1}

!0 = !{i32 1, !"wchar_size", i32 4}
!1 = !{!"clang version 10.0.0-4ubuntu1 "}
